; Function Attrs: mustprogress nofree norecurse nosync nounwind willreturn memory(argmem: write) uwtable
define hidden void @_ZN8G1Policy28abort_time_to_mixed_trackingEv(ptr nocapture noundef nonnull writeonly align 8 dereferenceable(552) %0) local_unnamed_addr #10 align 2 {
  %2 = getelementptr inbounds i8, ptr %0, i64 200
  store i8 0, ptr %2, align 8
  %3 = getelementptr inbounds i8, ptr %0, i64 224
  store double 0.000000e+00, ptr %3, align 8
  %4 = getelementptr inbounds i8, ptr %0, i64 208
  store <2 x double> <double -1.000000e+00, double -1.000000e+00>, ptr %4, align 8
  ret void
}